; Function Attrs: nounwind uwtable
define zeroext range(i8 0, 2) i8 @l_Array_anyMUnsafe_any___at_Lean_Compiler_LCNF_saveSpecParamInfo___spec__5(ptr noundef readonly captures(none) %0, i64 noundef %1, i64 noundef %2) local_unnamed_addr #2 {
  %.not37 = icmp eq i64 %1, %2
  br i1 %.not37, label %._crit_edge, label %.lr.ph

.lr.ph:                                           ; preds = %3
  %4 = getelementptr inbounds nuw i8, ptr %0, i64 24
  br label %5

5:                                                ; preds = %.lr.ph, %lean_dec.exit
  %.01938 = phi i64 [ %1, %.lr.ph ], [ %.221, %lean_dec.exit ]
  %6 = getelementptr inbounds nuw [0 x ptr], ptr %4, i64 0, i64 %.01938
  %7 = load ptr, ptr %6, align 8, !tbaa !9
  %8 = ptrtoint ptr %7 to i64
  %9 = and i64 %8, 1
  %.not.i27 = icmp eq i64 %9, 0
  br i1 %.not.i27, label %10, label %lean_dec.exit24

10:                                               ; preds = %5
  %.val.i.i = load i32, ptr %7, align 4, !tbaa !4
  %11 = icmp sgt i32 %.val.i.i, 0
  br i1 %11, label %12, label %14, !prof !11

12:                                               ; preds = %10
  %13 = add nuw i32 %.val.i.i, 1
  store i32 %13, ptr %7, align 4, !tbaa !4
  br label %16

14:                                               ; preds = %10
  %.not.i.i = icmp eq i32 %.val.i.i, 0
  br i1 %.not.i.i, label %lean_dec.exit24, label %15

15:                                               ; preds = %14
  tail call void @lean_inc_ref_cold(ptr noundef nonnull %7) #8
  %.pr = load i32, ptr %7, align 4, !tbaa !4
  br label %16

16:                                               ; preds = %12, %15
  %17 = phi i32 [ %13, %12 ], [ %.pr, %15 ]
  %18 = icmp sgt i32 %17, 1
  br i1 %18, label %19, label %21, !prof !14

19:                                               ; preds = %16
  %20 = add nsw i32 %17, -1
  store i32 %20, ptr %7, align 4, !tbaa !4
  br label %lean_dec.exit24

21:                                               ; preds = %16
  %.not.i = icmp eq i32 %17, 0
  br i1 %.not.i, label %lean_dec.exit24, label %22

22:                                               ; preds = %21
  tail call void @lean_dec_ref_cold(ptr noundef nonnull %7) #8
  br label %lean_dec.exit24

lean_dec.exit24:                                  ; preds = %5, %14, %22, %21, %19
  %23 = lshr i64 %8, 1
  %trunc = trunc i64 %23 to i8
  switch i8 %trunc, label %._crit_edge [
    i8 2, label %lean_dec.exit
    i8 4, label %lean_dec.exit
  ]

lean_dec.exit:                                    ; preds = %lean_dec.exit24, %lean_dec.exit24
  %.221 = add i64 %.01938, 1
  %.not = icmp eq i64 %.221, %2
  br i1 %.not, label %._crit_edge, label %5

._crit_edge:                                      ; preds = %lean_dec.exit24, %lean_dec.exit, %3
  %.2.ph = phi i8 [ 0, %3 ], [ 0, %lean_dec.exit ], [ 1, %lean_dec.exit24 ]
  ret i8 %.2.ph
}